; ModuleID = 'source-C-CXX/44/2348.c'
source_filename = "source-C-CXX/44/2348.c"
target datalayout = "e-m:e-p270:32:32-p271:32:32-p272:64:64-i64:64-f80:128-n8:16:32:64-S128"
target triple = "x86_64-pc-linux-gnu"

@.str = private unnamed_addr constant [7 x i8] c"%s%c%s\00", align 1
@.str.1 = private unnamed_addr constant [3 x i8] c"%d\00", align 1

; Function Attrs: nofree nounwind sspstrong uwtable
define dso_local i32 @main() local_unnamed_addr #0 {
  %1 = alloca [100 x i8], align 16
  %2 = alloca [100 x i8], align 16
  %3 = alloca i8, align 1
  %4 = getelementptr inbounds [100 x i8], [100 x i8]* %1, i64 0, i64 0
  call void @llvm.lifetime.start.p0i8(i64 100, i8* nonnull %4) #4
  %5 = getelementptr inbounds [100 x i8], [100 x i8]* %2, i64 0, i64 0
  call void @llvm.lifetime.start.p0i8(i64 100, i8* nonnull %5) #4
  call void @llvm.lifetime.start.p0i8(i64 1, i8* nonnull %3) #4
  %6 = call i32 (i8*, ...) @__isoc99_scanf(i8* getelementptr inbounds ([7 x i8], [7 x i8]* @.str, i64 0, i64 0), [100 x i8]* nonnull %1, i8* nonnull %3, [100 x i8]* nonnull %2)
  %7 = call i64 @strlen(i8* noundef nonnull %5) #5
  %8 = icmp eq i64 %7, 0
  br i1 %8, label %33, label %9

9:                                                ; preds = %0
  %10 = call i64 @strlen(i8* noundef nonnull %4) #5
  %11 = icmp eq i64 %10, 0
  br i1 %11, label %30, label %12

12:                                               ; preds = %9, %25
  %13 = phi i64 [ %26, %25 ], [ 0, %9 ]
  br label %16

14:                                               ; preds = %16
  %15 = icmp eq i64 %24, %10
  br i1 %15, label %28, label %16, !llvm.loop !5

16:                                               ; preds = %12, %14
  %17 = phi i64 [ 0, %12 ], [ %24, %14 ]
  %18 = getelementptr inbounds [100 x i8], [100 x i8]* %1, i64 0, i64 %17
  %19 = load i8, i8* %18, align 1, !tbaa !7
  %20 = add nuw nsw i64 %17, %13
  %21 = getelementptr inbounds [100 x i8], [100 x i8]* %2, i64 0, i64 %20
  %22 = load i8, i8* %21, align 1, !tbaa !7
  %23 = icmp eq i8 %19, %22
  %24 = add nuw i64 %17, 1
  br i1 %23, label %14, label %25

25:                                               ; preds = %16
  %26 = add nuw i64 %13, 1
  %27 = icmp eq i64 %26, %7
  br i1 %27, label %33, label %12, !llvm.loop !10

28:                                               ; preds = %14
  %29 = trunc i64 %13 to i32
  br label %30

30:                                               ; preds = %28, %9
  %31 = phi i32 [ 0, %9 ], [ %29, %28 ]
  %32 = call i32 (i8*, ...) @printf(i8* nonnull dereferenceable(1) getelementptr inbounds ([3 x i8], [3 x i8]* @.str.1, i64 0, i64 0), i32 %31)
  br label %33

33:                                               ; preds = %25, %0, %30
  call void @llvm.lifetime.end.p0i8(i64 1, i8* nonnull %3) #4
  call void @llvm.lifetime.end.p0i8(i64 100, i8* nonnull %5) #4
  call void @llvm.lifetime.end.p0i8(i64 100, i8* nonnull %4) #4
  ret i32 0
}

; Function Attrs: argmemonly mustprogress nofree nosync nounwind willreturn
declare void @llvm.lifetime.start.p0i8(i64 immarg, i8* nocapture) #1

; Function Attrs: nofree nounwind
declare noundef i32 @__isoc99_scanf(i8* nocapture noundef readonly, ...) local_unnamed_addr #2

; Function Attrs: argmemonly mustprogress nofree nounwind readonly willreturn
declare i64 @strlen(i8* nocapture) local_unnamed_addr #3

; Function Attrs: nofree nounwind
declare noundef i32 @printf(i8* nocapture noundef readonly, ...) local_unnamed_addr #2

; Function Attrs: argmemonly mustprogress nofree nosync nounwind willreturn
declare void @llvm.lifetime.end.p0i8(i64 immarg, i8* nocapture) #1


!llvm.module.flags = !{!0, !1, !2, !3}
!llvm.ident = !{!4}

!0 = !{i32 1, !"wchar_size", i32 4}
!1 = !{i32 7, !"PIC Level", i32 2}
!2 = !{i32 7, !"PIE Level", i32 2}
!3 = !{i32 7, !"uwtable", i32 1}
!4 = !{!"clang version 13.0.0"}
!5 = distinct !{!5, !6}
!6 = !{!"llvm.loop.mustprogress"}
!7 = !{!8, !8, i64 0}
!8 = !{!"omnipotent char", !9, i64 0}
!9 = !{!"Simple C/C++ TBAA"}
!10 = distinct !{!10, !6}
